target datalayout = "e-m:e-p270:32:32-p271:32:32-p272:64:64-i64:64-i128:128-f80:128-n8:16:32:64-S128"
target triple = "x86_64-pc-linux-gnu"

%struct._object = type { %union.anon, ptr }
%union.anon = type { i64 }
%struct._ts = type { ptr, ptr, ptr, i64, %struct.anon.0, i32, i32, i32, i32, i32, i32, i32, i32, ptr, ptr, ptr, ptr, ptr, ptr, ptr, ptr, i32, ptr, i64, i64, ptr, i64, i32, ptr, ptr, ptr, i64, i64, ptr, ptr, ptr, %struct._err_stackitem, ptr, i64, ptr, ptr }
%struct.anon.0 = type { i32 }
%struct._err_stackitem = type { ptr, ptr }
%struct.anon = type { i32, i32 }

@.str.80 = private unnamed_addr constant [39 x i8] c"../cpython/Modules/_testinternalcapi.c\00", align 1
@pending_threadfunc.kwlist = internal global [5 x ptr] [ptr @.str.207, ptr @.str.208, ptr @.str.209, ptr @.str.210, ptr null], align 16
@.str.211 = private unnamed_addr constant [26 x i8] c"O|I$pp:pending_threadfunc\00", align 1
@.str.212 = private unnamed_addr constant [58 x i8] c"r == _Py_ADD_PENDING_SUCCESS || r == _Py_ADD_PENDING_FULL\00", align 1
@__PRETTY_FUNCTION__.pending_threadfunc = private unnamed_addr constant [65 x i8] c"PyObject *pending_threadfunc(PyObject *, PyObject *, PyObject *)\00", align 1

; Function Attrs: alwaysinline nounwind uwtable
define internal i32 @_Py_IsImmortal(ptr noundef %0) #6 {
  %2 = alloca ptr, align 8
  store ptr %0, ptr %2, align 8, !tbaa !3
  %3 = load ptr, ptr %2, align 8, !tbaa !3
  %4 = getelementptr inbounds nuw %struct._object, ptr %3, i32 0, i32 0
  %5 = getelementptr inbounds nuw %struct.anon, ptr %4, i32 0, i32 0
  %6 = load i32, ptr %5, align 8, !tbaa !34
  %7 = icmp slt i32 %6, 0
  %8 = zext i1 %7 to i32
  ret i32 %8
}

; Function Attrs: inlinehint nounwind uwtable
define internal ptr @_PyThreadState_GET() #3 {
  %1 = call ptr @_PyThreadState_GetCurrent()
  ret ptr %1
}

; Function Attrs: alwaysinline nounwind uwtable
define internal void @Py_DECREF(ptr noundef %0) #6 {
  %2 = alloca ptr, align 8
  store ptr %0, ptr %2, align 8, !tbaa !3
  %3 = load ptr, ptr %2, align 8, !tbaa !3
  %4 = call i32 @_Py_IsImmortal(ptr noundef %3)
  %5 = icmp ne i32 %4, 0
  br i1 %5, label %6, label %7

6:                                                ; preds = %1
  br label %16

7:                                                ; preds = %1
  %8 = load ptr, ptr %2, align 8, !tbaa !3
  %9 = getelementptr inbounds nuw %struct._object, ptr %8, i32 0, i32 0
  %10 = getelementptr inbounds nuw %struct.anon, ptr %9, i32 0, i32 0
  %11 = load i32, ptr %10, align 8, !tbaa !34
  %12 = add i32 %11, -1
  store i32 %12, ptr %10, align 8, !tbaa !34
  %13 = icmp eq i32 %12, 0
  br i1 %13, label %14, label %16

14:                                               ; preds = %7
  %15 = load ptr, ptr %2, align 8, !tbaa !3
  call void @_Py_Dealloc(ptr noundef %15)
  br label %16

16:                                               ; preds = %6, %14, %7
  ret void
}

; Function Attrs: alwaysinline nounwind uwtable
define internal void @Py_INCREF(ptr noundef %0) #6 {
  %2 = alloca ptr, align 8
  %3 = alloca i32, align 4
  %4 = alloca i32, align 4
  store ptr %0, ptr %2, align 8, !tbaa !3
  call void @llvm.lifetime.start.p0(i64 4, ptr %3) #10
  %5 = load ptr, ptr %2, align 8, !tbaa !3
  %6 = getelementptr inbounds nuw %struct._object, ptr %5, i32 0, i32 0
  %7 = getelementptr inbounds nuw %struct.anon, ptr %6, i32 0, i32 0
  %8 = load i32, ptr %7, align 8, !tbaa !34
  store i32 %8, ptr %3, align 4, !tbaa !26
  %9 = load i32, ptr %3, align 4, !tbaa !26
  %10 = icmp slt i32 %9, 0
  br i1 %10, label %11, label %12

11:                                               ; preds = %1
  store i32 1, ptr %4, align 4
  br label %18

12:                                               ; preds = %1
  %13 = load i32, ptr %3, align 4, !tbaa !26
  %14 = add i32 %13, 1
  %15 = load ptr, ptr %2, align 8, !tbaa !3
  %16 = getelementptr inbounds nuw %struct._object, ptr %15, i32 0, i32 0
  %17 = getelementptr inbounds nuw %struct.anon, ptr %16, i32 0, i32 0
  store i32 %14, ptr %17, align 8, !tbaa !34
  store i32 0, ptr %4, align 4
  br label %18

18:                                               ; preds = %12, %11
  call void @llvm.lifetime.end.p0(i64 4, ptr %3) #10
  %19 = load i32, ptr %4, align 4
  switch i32 %19, label %21 [
    i32 0, label %20
    i32 1, label %20
  ]

20:                                               ; preds = %18, %18
  ret void

21:                                               ; preds = %18
  unreachable
}

; Function Attrs: inlinehint nounwind uwtable
define internal ptr @_PyInterpreterState_GET() #3 {
  %1 = alloca ptr, align 8
  call void @llvm.lifetime.start.p0(i64 8, ptr %1) #10
  %2 = call ptr @_PyThreadState_GET()
  store ptr %2, ptr %1, align 8, !tbaa !9
  %3 = load ptr, ptr %1, align 8, !tbaa !9
  %4 = getelementptr inbounds nuw %struct._ts, ptr %3, i32 0, i32 2
  %5 = load ptr, ptr %4, align 8, !tbaa !50
  call void @llvm.lifetime.end.p0(i64 8, ptr %1) #10
  ret ptr %5
}

; Function Attrs: nounwind uwtable
define internal ptr @pending_threadfunc(ptr noundef %0, ptr noundef %1, ptr noundef %2) #0 {
  %4 = alloca ptr, align 8
  %5 = alloca ptr, align 8
  %6 = alloca ptr, align 8
  %7 = alloca ptr, align 8
  %8 = alloca ptr, align 8
  %9 = alloca i32, align 4
  %10 = alloca i32, align 4
  %11 = alloca i32, align 4
  %12 = alloca i32, align 4
  %13 = alloca ptr, align 8
  %14 = alloca i32, align 4
  %15 = alloca ptr, align 8
  %16 = alloca i32, align 4
  %17 = alloca i32, align 4
  %18 = alloca i32, align 4
  store ptr %0, ptr %5, align 8, !tbaa !3
  store ptr %1, ptr %6, align 8, !tbaa !3
  store ptr %2, ptr %7, align 8, !tbaa !3
  call void @llvm.lifetime.start.p0(i64 8, ptr %8) #10
  call void @llvm.lifetime.start.p0(i64 4, ptr %9) #10
  store i32 1, ptr %9, align 4, !tbaa !26
  call void @llvm.lifetime.start.p0(i64 4, ptr %10) #10
  store i32 0, ptr %10, align 4, !tbaa !26
  call void @llvm.lifetime.start.p0(i64 4, ptr %11) #10
  store i32 0, ptr %11, align 4, !tbaa !26
  %19 = load ptr, ptr %6, align 8, !tbaa !3
  %20 = load ptr, ptr %7, align 8, !tbaa !3
  %21 = call i32 (ptr, ptr, ptr, ptr, ...) @PyArg_ParseTupleAndKeywords(ptr noundef %19, ptr noundef %20, ptr noundef @.str.211, ptr noundef @pending_threadfunc.kwlist, ptr noundef %8, ptr noundef %9, ptr noundef %10, ptr noundef %11)
  %22 = icmp ne i32 %21, 0
  br i1 %22, label %24, label %23

23:                                               ; preds = %3
  store ptr null, ptr %4, align 8
  store i32 1, ptr %12, align 4
  br label %99

24:                                               ; preds = %3
  call void @llvm.lifetime.start.p0(i64 8, ptr %13) #10
  %25 = call ptr @_PyInterpreterState_GET()
  store ptr %25, ptr %13, align 8, !tbaa !49
  call void @llvm.lifetime.start.p0(i64 4, ptr %14) #10
  store i32 0, ptr %14, align 4, !tbaa !26
  br label %26

26:                                               ; preds = %33, %24
  %27 = load i32, ptr %14, align 4, !tbaa !26
  %28 = load i32, ptr %9, align 4, !tbaa !26
  %29 = icmp ult i32 %27, %28
  br i1 %29, label %31, label %30

30:                                               ; preds = %26
  store i32 2, ptr %12, align 4
  call void @llvm.lifetime.end.p0(i64 4, ptr %14) #10
  br label %36

31:                                               ; preds = %26
  %32 = load ptr, ptr %8, align 8, !tbaa !3
  call void @Py_INCREF(ptr noundef %32)
  br label %33

33:                                               ; preds = %31
  %34 = load i32, ptr %14, align 4, !tbaa !26
  %35 = add i32 %34, 1
  store i32 %35, ptr %14, align 4, !tbaa !26
  br label %26, !llvm.loop !133

36:                                               ; preds = %30
  call void @llvm.lifetime.start.p0(i64 8, ptr %15) #10
  store ptr null, ptr %15, align 8, !tbaa !9
  %37 = load i32, ptr %10, align 4, !tbaa !26
  %38 = icmp ne i32 %37, 0
  br i1 %38, label %41, label %39

39:                                               ; preds = %36
  %40 = call ptr @PyEval_SaveThread()
  store ptr %40, ptr %15, align 8, !tbaa !9
  br label %41

41:                                               ; preds = %39, %36
  call void @llvm.lifetime.start.p0(i64 4, ptr %16) #10
  store i32 0, ptr %16, align 4, !tbaa !26
  br label %42

42:                                               ; preds = %75, %41
  %43 = load i32, ptr %16, align 4, !tbaa !26
  %44 = load i32, ptr %9, align 4, !tbaa !26
  %45 = icmp ult i32 %43, %44
  br i1 %45, label %46, label %78

46:                                               ; preds = %42
  %47 = load i32, ptr %11, align 4, !tbaa !26
  %48 = icmp ne i32 %47, 0
  br i1 %48, label %49, label %67

49:                                               ; preds = %46
  call void @llvm.lifetime.start.p0(i64 4, ptr %17) #10
  br label %50

50:                                               ; preds = %63, %49
  %51 = load ptr, ptr %13, align 8, !tbaa !49
  %52 = load ptr, ptr %8, align 8, !tbaa !3
  %53 = call i32 @_PyEval_AddPendingCall(ptr noundef %51, ptr noundef @_pending_callback, ptr noundef %52, i32 noundef 0)
  store i32 %53, ptr %17, align 4, !tbaa !26
  %54 = load i32, ptr %17, align 4, !tbaa !26
  %55 = icmp eq i32 %54, 0
  br i1 %55, label %59, label %56

56:                                               ; preds = %50
  %57 = load i32, ptr %17, align 4, !tbaa !26
  %58 = icmp eq i32 %57, -1
  br i1 %58, label %59, label %60

59:                                               ; preds = %56, %50
  br label %62

60:                                               ; preds = %56
  call void @__assert_fail(ptr noundef @.str.212, ptr noundef @.str.80, i32 noundef 1030, ptr noundef @__PRETTY_FUNCTION__.pending_threadfunc) #11
  unreachable

61:                                               ; No predecessors!
  br label %62

62:                                               ; preds = %61, %59
  br label %63

63:                                               ; preds = %62
  %64 = load i32, ptr %17, align 4, !tbaa !26
  %65 = icmp eq i32 %64, -1
  br i1 %65, label %50, label %66, !llvm.loop !134

66:                                               ; preds = %63
  call void @llvm.lifetime.end.p0(i64 4, ptr %17) #10
  br label %74

67:                                               ; preds = %46
  %68 = load ptr, ptr %13, align 8, !tbaa !49
  %69 = load ptr, ptr %8, align 8, !tbaa !3
  %70 = call i32 @_PyEval_AddPendingCall(ptr noundef %68, ptr noundef @_pending_callback, ptr noundef %69, i32 noundef 0)
  %71 = icmp slt i32 %70, 0
  br i1 %71, label %72, label %73

72:                                               ; preds = %67
  br label %78

73:                                               ; preds = %67
  br label %74

74:                                               ; preds = %73, %66
  br label %75

75:                                               ; preds = %74
  %76 = load i32, ptr %16, align 4, !tbaa !26
  %77 = add i32 %76, 1
  store i32 %77, ptr %16, align 4, !tbaa !26
  br label %42, !llvm.loop !135

78:                                               ; preds = %72, %42
  %79 = load i32, ptr %10, align 4, !tbaa !26
  %80 = icmp ne i32 %79, 0
  br i1 %80, label %83, label %81

81:                                               ; preds = %78
  %82 = load ptr, ptr %15, align 8, !tbaa !9
  call void @PyEval_RestoreThread(ptr noundef %82)
  br label %83

83:                                               ; preds = %81, %78
  call void @llvm.lifetime.start.p0(i64 4, ptr %18) #10
  %84 = load i32, ptr %16, align 4, !tbaa !26
  store i32 %84, ptr %18, align 4, !tbaa !26
  br label %85

85:                                               ; preds = %92, %83
  %86 = load i32, ptr %18, align 4, !tbaa !26
  %87 = load i32, ptr %9, align 4, !tbaa !26
  %88 = icmp ult i32 %86, %87
  br i1 %88, label %90, label %89

89:                                               ; preds = %85
  store i32 10, ptr %12, align 4
  call void @llvm.lifetime.end.p0(i64 4, ptr %18) #10
  br label %95

90:                                               ; preds = %85
  %91 = load ptr, ptr %8, align 8, !tbaa !3
  call void @Py_DECREF(ptr noundef %91)
  br label %92

92:                                               ; preds = %90
  %93 = load i32, ptr %18, align 4, !tbaa !26
  %94 = add i32 %93, 1
  store i32 %94, ptr %18, align 4, !tbaa !26
  br label %85, !llvm.loop !136

95:                                               ; preds = %89
  %96 = load i32, ptr %16, align 4, !tbaa !26
  %97 = zext i32 %96 to i64
  %98 = call ptr @PyLong_FromUnsignedLong(i64 noundef %97)
  store ptr %98, ptr %4, align 8
  store i32 1, ptr %12, align 4
  call void @llvm.lifetime.end.p0(i64 4, ptr %16) #10
  call void @llvm.lifetime.end.p0(i64 8, ptr %15) #10
  call void @llvm.lifetime.end.p0(i64 8, ptr %13) #10
  br label %99

99:                                               ; preds = %95, %23
  call void @llvm.lifetime.end.p0(i64 4, ptr %11) #10
  call void @llvm.lifetime.end.p0(i64 4, ptr %10) #10
  call void @llvm.lifetime.end.p0(i64 4, ptr %9) #10
  call void @llvm.lifetime.end.p0(i64 8, ptr %8) #10
  %100 = load ptr, ptr %4, align 8
  ret ptr %100
}