; Function Attrs: nounwind uwtable
define internal ptr @pending_threadfunc(ptr readnone captures(none) %0, ptr noundef %1, ptr noundef %2) #0 {
  %4 = alloca ptr, align 8
  %5 = alloca i32, align 4
  %6 = alloca i32, align 4
  %7 = alloca i32, align 4
  call void @llvm.lifetime.start.p0(i64 8, ptr nonnull %4) #11
  call void @llvm.lifetime.start.p0(i64 4, ptr nonnull %5) #11
  store i32 1, ptr %5, align 4, !tbaa !25
  call void @llvm.lifetime.start.p0(i64 4, ptr nonnull %6) #11
  store i32 0, ptr %6, align 4, !tbaa !25
  call void @llvm.lifetime.start.p0(i64 4, ptr nonnull %7) #11
  store i32 0, ptr %7, align 4, !tbaa !25
  %8 = call i32 (ptr, ptr, ptr, ptr, ...) @PyArg_ParseTupleAndKeywords(ptr noundef %1, ptr noundef %2, ptr noundef nonnull @.str.211, ptr noundef nonnull @pending_threadfunc.kwlist, ptr noundef nonnull %4, ptr noundef nonnull %5, ptr noundef nonnull %6, ptr noundef nonnull %7) #11
  %.not = icmp eq i32 %8, 0
  br i1 %.not, label %65, label %9

9:                                                ; preds = %3
  %10 = call ptr @_PyThreadState_GetCurrent() #11
  %11 = getelementptr inbounds nuw i8, ptr %10, i64 16
  %12 = load ptr, ptr %11, align 8, !tbaa !45
  %13 = load i32, ptr %5, align 4, !tbaa !25
  %.not36 = icmp eq i32 %13, 0
  br i1 %.not36, label %._crit_edge, label %.lr.ph

.lr.ph:                                           ; preds = %9
  %14 = load ptr, ptr %4, align 8, !tbaa !9
  %15 = load i32, ptr %14, align 8, !tbaa !10
  %16 = icmp slt i32 %15, 0
  br i1 %16, label %._crit_edge, label %.lr.ph.split

._crit_edge:                                      ; preds = %Py_INCREF.exit, %.lr.ph, %9
  %17 = phi i32 [ 0, %9 ], [ %13, %.lr.ph ], [ %25, %Py_INCREF.exit ]
  %18 = load i32, ptr %6, align 4, !tbaa !25
  %.not21 = icmp eq i32 %18, 0
  br i1 %.not21, label %28, label %30

.lr.ph.split:                                     ; preds = %.lr.ph, %Py_INCREF.exit
  %19 = phi i32 [ %25, %Py_INCREF.exit ], [ %13, %.lr.ph ]
  %.02025 = phi i32 [ %26, %Py_INCREF.exit ], [ 0, %.lr.ph ]
  %20 = load ptr, ptr %4, align 8, !tbaa !9
  %21 = load i32, ptr %20, align 8, !tbaa !10
  %22 = icmp slt i32 %21, 0
  br i1 %22, label %Py_INCREF.exit, label %23

23:                                               ; preds = %.lr.ph.split
  %24 = add nuw i32 %21, 1
  store i32 %24, ptr %20, align 8, !tbaa !10
  %.pre = load i32, ptr %5, align 4, !tbaa !25
  br label %Py_INCREF.exit

Py_INCREF.exit:                                   ; preds = %.lr.ph.split, %23
  %25 = phi i32 [ %19, %.lr.ph.split ], [ %.pre, %23 ]
  %26 = add nuw i32 %.02025, 1
  %27 = icmp ult i32 %26, %25
  br i1 %27, label %.lr.ph.split, label %._crit_edge, !llvm.loop !148

28:                                               ; preds = %._crit_edge
  %29 = call ptr @PyEval_SaveThread() #11
  %.pre40 = load i32, ptr %5, align 4, !tbaa !25
  br label %30

30:                                               ; preds = %28, %._crit_edge
  %31 = phi i32 [ %17, %._crit_edge ], [ %.pre40, %28 ]
  %.019 = phi ptr [ null, %._crit_edge ], [ %29, %28 ]
  %.not37 = icmp eq i32 %31, 0
  br i1 %.not37, label %._crit_edge29, label %.lr.ph28

.lr.ph28:                                         ; preds = %30, %.loopexit
  %.01826 = phi i32 [ %43, %.loopexit ], [ 0, %30 ]
  %32 = load i32, ptr %7, align 4, !tbaa !25
  %.not22 = icmp eq i32 %32, 0
  br i1 %.not22, label %39, label %.preheader

.preheader:                                       ; preds = %.lr.ph28, %37
  %33 = load ptr, ptr %4, align 8, !tbaa !9
  %34 = call i32 @_PyEval_AddPendingCall(ptr noundef %12, ptr noundef nonnull @_pending_callback, ptr noundef %33, i32 noundef 0) #11
  %35 = add i32 %34, 1
  %or.cond = icmp ult i32 %35, 2
  br i1 %or.cond, label %37, label %36

36:                                               ; preds = %.preheader
  call void @__assert_fail(ptr noundef nonnull @.str.212, ptr noundef nonnull @.str.80, i32 noundef 1030, ptr noundef nonnull @__PRETTY_FUNCTION__.pending_threadfunc) #12
  unreachable

37:                                               ; preds = %.preheader
  %38 = icmp eq i32 %34, -1
  br i1 %38, label %.preheader, label %.loopexit, !llvm.loop !150

39:                                               ; preds = %.lr.ph28
  %40 = load ptr, ptr %4, align 8, !tbaa !9
  %41 = call i32 @_PyEval_AddPendingCall(ptr noundef %12, ptr noundef nonnull @_pending_callback, ptr noundef %40, i32 noundef 0) #11
  %42 = icmp slt i32 %41, 0
  br i1 %42, label %._crit_edge29, label %.loopexit

.loopexit:                                        ; preds = %37, %39
  %43 = add nuw i32 %.01826, 1
  %44 = load i32, ptr %5, align 4, !tbaa !25
  %45 = icmp ult i32 %43, %44
  br i1 %45, label %.lr.ph28, label %._crit_edge29, !llvm.loop !151

._crit_edge29:                                    ; preds = %.loopexit, %39, %30
  %.018.lcssa = phi i32 [ 0, %30 ], [ %.01826, %39 ], [ %43, %.loopexit ]
  %46 = load i32, ptr %6, align 4, !tbaa !25
  %.not23 = icmp eq i32 %46, 0
  br i1 %.not23, label %47, label %48

47:                                               ; preds = %._crit_edge29
  call void @PyEval_RestoreThread(ptr noundef %.019) #11
  br label %48

48:                                               ; preds = %47, %._crit_edge29
  %49 = load i32, ptr %5, align 4, !tbaa !25
  %50 = icmp ult i32 %.018.lcssa, %49
  br i1 %50, label %.lr.ph34, label %._crit_edge35

.lr.ph34:                                         ; preds = %48
  %51 = load ptr, ptr %4, align 8, !tbaa !9
  %52 = load i32, ptr %51, align 8, !tbaa !10
  %53 = icmp sgt i32 %52, -1
  br i1 %53, label %.lr.ph34.split, label %._crit_edge35

._crit_edge35:                                    ; preds = %Py_DECREF.exit, %.lr.ph34, %48
  %54 = zext i32 %.018.lcssa to i64
  %55 = call ptr @PyLong_FromUnsignedLong(i64 noundef %54) #11
  br label %65

.lr.ph34.split:                                   ; preds = %.lr.ph34, %Py_DECREF.exit
  %.032 = phi i32 [ %62, %Py_DECREF.exit ], [ %.018.lcssa, %.lr.ph34 ]
  %56 = load ptr, ptr %4, align 8, !tbaa !9
  %57 = load i32, ptr %56, align 8, !tbaa !10
  %.not.i = icmp sgt i32 %57, -1
  br i1 %.not.i, label %58, label %Py_DECREF.exit

58:                                               ; preds = %.lr.ph34.split
  %59 = add nsw i32 %57, -1
  store i32 %59, ptr %56, align 8, !tbaa !10
  %60 = icmp eq i32 %59, 0
  br i1 %60, label %61, label %Py_DECREF.exit

61:                                               ; preds = %58
  call void @_Py_Dealloc(ptr noundef nonnull %56) #11
  br label %Py_DECREF.exit

Py_DECREF.exit:                                   ; preds = %.lr.ph34.split, %58, %61
  %62 = add nuw i32 %.032, 1
  %63 = load i32, ptr %5, align 4, !tbaa !25
  %64 = icmp ult i32 %62, %63
  br i1 %64, label %.lr.ph34.split, label %._crit_edge35, !llvm.loop !152

65:                                               ; preds = %3, %._crit_edge35
  %.017 = phi ptr [ %55, %._crit_edge35 ], [ null, %3 ]
  call void @llvm.lifetime.end.p0(i64 4, ptr nonnull %7) #11
  call void @llvm.lifetime.end.p0(i64 4, ptr nonnull %6) #11
  call void @llvm.lifetime.end.p0(i64 4, ptr nonnull %5) #11
  call void @llvm.lifetime.end.p0(i64 8, ptr nonnull %4) #11
  ret ptr %.017
}